target datalayout = "e-m:e-p270:32:32-p271:32:32-p272:64:64-i64:64-i128:128-f80:128-n8:16:32:64-S128"
target triple = "x86_64-pc-linux-gnu"

%struct.lv_point_t = type { i32, i32 }

; Function Attrs: nounwind uwtable
define i32 @lv_freetype_italic_transform_on_pos(i64 %0) #0 {
  %2 = alloca %struct.lv_point_t, align 4
  store i64 %0, ptr %2, align 4
  %3 = getelementptr inbounds nuw %struct.lv_point_t, ptr %2, i32 0, i32 0
  %4 = load i32, ptr %3, align 4, !tbaa !79
  %5 = getelementptr inbounds nuw %struct.lv_point_t, ptr %2, i32 0, i32 1
  %6 = load i32, ptr %5, align 4, !tbaa !81
  %7 = mul nsw i32 %6, 13930
  %8 = ashr i32 %7, 16
  %9 = add nsw i32 %4, %8
  ret i32 %9
}