; Function Attrs: mustprogress nofree norecurse nosync nounwind willreturn memory(none) uwtable
define i32 @lv_freetype_italic_transform_on_pos(i64 %0) local_unnamed_addr #5 {
  %.sroa.0.0.extract.trunc = trunc i64 %0 to i32
  %.sroa.2.0.extract.shift = lshr i64 %0, 32
  %.sroa.2.0.extract.trunc = trunc nuw i64 %.sroa.2.0.extract.shift to i32
  %2 = mul nsw i32 %.sroa.2.0.extract.trunc, 13930
  %3 = ashr i32 %2, 16
  %4 = add nsw i32 %3, %.sroa.0.0.extract.trunc
  ret i32 %4
}